; Function Attrs: nofree norecurse nosync nounwind memory(readwrite, inaccessiblemem: none) uwtable
define hidden void @IntArgbToByteBinary4BitConvert(ptr noundef %0, ptr noundef %1, i32 noundef %2, i32 noundef %3, ptr nocapture noundef readonly %4, ptr nocapture noundef readonly %5, ptr nocapture readnone %6, ptr nocapture readnone %7) #0 {
  %9 = getelementptr inbounds i8, ptr %4, i64 32
  %10 = load i32, ptr %9, align 8
  %11 = getelementptr inbounds i8, ptr %5, i64 32
  %12 = load i32, ptr %11, align 8
  %13 = load i32, ptr %5, align 8
  %14 = getelementptr inbounds i8, ptr %5, i64 48
  %15 = load ptr, ptr %14, align 8
  %16 = shl i32 %2, 2
  %17 = sub i32 %10, %16
  %18 = getelementptr inbounds i8, ptr %5, i64 24
  %19 = sext i32 %17 to i64
  %20 = sext i32 %12 to i64
  br label %21

21:                                               ; preds = %68, %8
  %.048 = phi ptr [ %1, %8 ], [ %76, %68 ]
  %.047 = phi ptr [ %0, %8 ], [ %74, %68 ]
  %.0 = phi i32 [ %3, %8 ], [ %77, %68 ]
  %22 = load i32, ptr %18, align 8
  %23 = sdiv i32 %22, 4
  %24 = add nsw i32 %23, %13
  %25 = sdiv i32 %24, 2
  %26 = srem i32 %24, 2
  %27 = shl nsw i32 %26, 2
  %28 = sub nsw i32 4, %27
  %29 = sext i32 %25 to i64
  %30 = getelementptr inbounds i8, ptr %.048, i64 %29
  %31 = load i8, ptr %30, align 1
  %32 = zext i8 %31 to i32
  br label %33

33:                                               ; preds = %44, %21
  %.055 = phi i32 [ %25, %21 ], [ %.156, %44 ]
  %.053 = phi i32 [ %28, %21 ], [ %63, %44 ]
  %.051 = phi i32 [ %32, %21 ], [ %62, %44 ]
  %.050 = phi i32 [ %2, %21 ], [ %67, %44 ]
  %.1 = phi ptr [ %.047, %21 ], [ %66, %44 ]
  %34 = icmp slt i32 %.053, 0
  br i1 %34, label %35, label %44

35:                                               ; preds = %33
  %36 = trunc i32 %.051 to i8
  %37 = sext i32 %.055 to i64
  %38 = getelementptr inbounds i8, ptr %.048, i64 %37
  store i8 %36, ptr %38, align 1
  %39 = add nsw i32 %.055, 1
  %40 = sext i32 %39 to i64
  %41 = getelementptr inbounds i8, ptr %.048, i64 %40
  %42 = load i8, ptr %41, align 1
  %43 = zext i8 %42 to i32
  br label %44

44:                                               ; preds = %35, %33
  %.156 = phi i32 [ %39, %35 ], [ %.055, %33 ]
  %.154 = phi i32 [ 4, %35 ], [ %.053, %33 ]
  %.152 = phi i32 [ %43, %35 ], [ %.051, %33 ]
  %45 = load i32, ptr %.1, align 4
  %46 = shl nuw nsw i32 15, %.154
  %47 = xor i32 %46, -1
  %48 = and i32 %.152, %47
  %49 = lshr i32 %45, 9
  %50 = and i32 %49, 31744
  %51 = lshr i32 %45, 6
  %52 = and i32 %51, 992
  %53 = or disjoint i32 %50, %52
  %54 = lshr i32 %45, 3
  %55 = and i32 %54, 31
  %56 = or disjoint i32 %53, %55
  %57 = zext nneg i32 %56 to i64
  %58 = getelementptr inbounds i8, ptr %15, i64 %57
  %59 = load i8, ptr %58, align 1
  %60 = zext i8 %59 to i32
  %61 = shl nuw nsw i32 %60, %.154
  %62 = or i32 %61, %48
  %63 = add nsw i32 %.154, -4
  %64 = ptrtoint ptr %.1 to i64
  %65 = add nsw i64 %64, 4
  %66 = inttoptr i64 %65 to ptr
  %67 = add i32 %.050, -1
  %.not = icmp eq i32 %67, 0
  br i1 %.not, label %68, label %33, !llvm.loop !34

68:                                               ; preds = %44
  %69 = ptrtoint ptr %.048 to i64
  %70 = trunc i32 %62 to i8
  %71 = sext i32 %.156 to i64
  %72 = getelementptr inbounds i8, ptr %.048, i64 %71
  store i8 %70, ptr %72, align 1
  %73 = add nsw i64 %65, %19
  %74 = inttoptr i64 %73 to ptr
  %75 = add nsw i64 %69, %20
  %76 = inttoptr i64 %75 to ptr
  %77 = add i32 %.0, -1
  %.not59 = icmp eq i32 %77, 0
  br i1 %.not59, label %78, label %21, !llvm.loop !35

78:                                               ; preds = %68
  ret void
}